target datalayout = "e-m:e-p270:32:32-p271:32:32-p272:64:64-i64:64-i128:128-f80:128-n8:16:32:64-S128"
target triple = "x86_64-pc-linux-gnu"

%"struct.icu_77::UInitOnce" = type { %"struct.std::atomic", i32 }
%"struct.std::atomic" = type { %"struct.std::__atomic_base" }
%"struct.std::__atomic_base" = type { i32 }

@_ZN6icu_7712_GLOBAL__N_130gSystemDefaultCenturyStartYearE = internal global i32 -1, align 4
@_ZN6icu_7712_GLOBAL__N_125gSystemDefaultCenturyInitE = internal global { { i32 }, i32 } zeroinitializer, align 4

; Function Attrs: noinline noreturn nounwind uwtable
define linkonce_odr hidden void @__clang_call_terminate(ptr noundef %0) #10 comdat {
  %2 = call ptr @__cxa_begin_catch(ptr %0) #8
  call void @_ZSt9terminatev() #11
  unreachable
}

; Function Attrs: mustprogress nounwind uwtable
define linkonce_odr noundef i32 @_ZStanSt12memory_orderSt23__memory_order_modifier(i32 noundef %0, i32 noundef %1) #0 comdat {
  %3 = alloca i32, align 4
  %4 = alloca i32, align 4
  store i32 %0, ptr %3, align 4, !tbaa !62
  store i32 %1, ptr %4, align 4, !tbaa !64
  %5 = load i32, ptr %3, align 4, !tbaa !62
  %6 = load i32, ptr %4, align 4, !tbaa !64
  %7 = and i32 %5, %6
  ret i32 %7
}

; Function Attrs: alwaysinline mustprogress nounwind uwtable
define linkonce_odr noundef i32 @_ZNKSt13__atomic_baseIiE4loadESt12memory_order(ptr noundef nonnull align 4 dereferenceable(4) %0, i32 noundef %1) #9 comdat align 2 personality ptr @__gxx_personality_v0 {
  %3 = alloca ptr, align 8
  %4 = alloca i32, align 4
  %5 = alloca i32, align 4
  %6 = alloca i32, align 4
  store ptr %0, ptr %3, align 8, !tbaa !60
  store i32 %1, ptr %4, align 4, !tbaa !62
  %7 = load ptr, ptr %3, align 8
  call void @llvm.lifetime.start.p0(i64 4, ptr %5) #8
  %8 = load i32, ptr %4, align 4, !tbaa !62
  %9 = invoke noundef i32 @_ZStanSt12memory_orderSt23__memory_order_modifier(i32 noundef %8, i32 noundef 65535)
          to label %10 unwind label %27

10:                                               ; preds = %2
  store i32 %9, ptr %5, align 4, !tbaa !62
  br label %11

11:                                               ; preds = %10
  br label %12

12:                                               ; preds = %11
  br label %13

13:                                               ; preds = %12
  br label %14

14:                                               ; preds = %13
  br label %15

15:                                               ; preds = %14
  br label %16

16:                                               ; preds = %15
  %17 = getelementptr inbounds nuw %"struct.std::__atomic_base", ptr %7, i32 0, i32 0
  %18 = load i32, ptr %4, align 4, !tbaa !62
  switch i32 %18, label %19 [
    i32 1, label %21
    i32 2, label %21
    i32 5, label %23
  ]

19:                                               ; preds = %16
  %20 = load atomic i32, ptr %17 monotonic, align 4
  store i32 %20, ptr %6, align 4
  br label %25

21:                                               ; preds = %16, %16
  %22 = load atomic i32, ptr %17 acquire, align 4
  store i32 %22, ptr %6, align 4
  br label %25

23:                                               ; preds = %16
  %24 = load atomic i32, ptr %17 seq_cst, align 4
  store i32 %24, ptr %6, align 4
  br label %25

25:                                               ; preds = %23, %21, %19
  %26 = load i32, ptr %6, align 4, !tbaa !17
  call void @llvm.lifetime.end.p0(i64 4, ptr %5) #8
  ret i32 %26

27:                                               ; preds = %2
  %28 = landingpad { ptr, i32 }
          catch ptr null
  %29 = extractvalue { ptr, i32 } %28, 0
  call void @__clang_call_terminate(ptr %29) #11
  unreachable
}

; Function Attrs: inlinehint mustprogress nounwind uwtable
define linkonce_odr noundef i32 @_ZN6icu_7716umtx_loadAcquireERSt6atomicIiE(ptr noundef nonnull align 4 dereferenceable(4) %0) #4 comdat {
  %2 = alloca ptr, align 8
  store ptr %0, ptr %2, align 8, !tbaa !58
  %3 = load ptr, ptr %2, align 8, !tbaa !58
  %4 = call noundef i32 @_ZNKSt13__atomic_baseIiE4loadESt12memory_order(ptr noundef nonnull align 4 dereferenceable(4) %3, i32 noundef 2) #8
  ret i32 %4
}

; Function Attrs: inlinehint mustprogress uwtable
define linkonce_odr void @_ZN6icu_7713umtx_initOnceERNS_9UInitOnceEPFvvE(ptr noundef nonnull align 4 dereferenceable(8) %0, ptr noundef %1) #6 comdat {
  %3 = alloca ptr, align 8
  %4 = alloca ptr, align 8
  store ptr %0, ptr %3, align 8, !tbaa !41
  store ptr %1, ptr %4, align 8, !tbaa !12
  %5 = load ptr, ptr %3, align 8, !tbaa !41
  %6 = getelementptr inbounds nuw %"struct.icu_77::UInitOnce", ptr %5, i32 0, i32 0
  %7 = call noundef i32 @_ZN6icu_7716umtx_loadAcquireERSt6atomicIiE(ptr noundef nonnull align 4 dereferenceable(4) %6)
  %8 = icmp eq i32 %7, 2
  br i1 %8, label %9, label %10

9:                                                ; preds = %2
  br label %17

10:                                               ; preds = %2
  %11 = load ptr, ptr %3, align 8, !tbaa !41
  %12 = call noundef signext i8 @_ZN6icu_7720umtx_initImplPreInitERNS_9UInitOnceE(ptr noundef nonnull align 4 dereferenceable(8) %11)
  %13 = icmp ne i8 %12, 0
  br i1 %13, label %14, label %17

14:                                               ; preds = %10
  %15 = load ptr, ptr %4, align 8, !tbaa !12
  call void %15()
  %16 = load ptr, ptr %3, align 8, !tbaa !41
  call void @_ZN6icu_7721umtx_initImplPostInitERNS_9UInitOnceE(ptr noundef nonnull align 4 dereferenceable(8) %16)
  br label %17

17:                                               ; preds = %9, %14, %10
  ret void
}

; Function Attrs: mustprogress uwtable
define noundef i32 @_ZNK6icu_7715IslamicCalendar23defaultCenturyStartYearEv(ptr noundef nonnull align 8 dereferenceable(192) %0) unnamed_addr #1 align 2 {
  %2 = alloca ptr, align 8
  store ptr %0, ptr %2, align 8, !tbaa !3
  call void @_ZN6icu_7713umtx_initOnceERNS_9UInitOnceEPFvvE(ptr noundef nonnull align 4 dereferenceable(8) @_ZN6icu_7712_GLOBAL__N_125gSystemDefaultCenturyInitE, ptr noundef @_ZN6icu_7712_GLOBAL__N_130initializeSystemDefaultCenturyEv)
  %3 = load i32, ptr @_ZN6icu_7712_GLOBAL__N_130gSystemDefaultCenturyStartYearE, align 4, !tbaa !17
  ret i32 %3
}