; Function Attrs: mustprogress uwtable
define noundef i32 @_ZNK6icu_7715IslamicCalendar23defaultCenturyStartYearEv(ptr nonnull readnone align 8 captures(none) %0) unnamed_addr #1 align 2 personality ptr @__gxx_personality_v0 {
  %2 = load atomic i32, ptr @_ZN6icu_7712_GLOBAL__N_125gSystemDefaultCenturyInitE acquire, align 4
  %3 = icmp eq i32 %2, 2
  br i1 %3, label %_ZN6icu_7713umtx_initOnceERNS_9UInitOnceEPFvvE.exit, label %4

4:                                                ; preds = %1
  %5 = tail call noundef signext i8 @_ZN6icu_7720umtx_initImplPreInitERNS_9UInitOnceE(ptr noundef nonnull align 4 dereferenceable(8) @_ZN6icu_7712_GLOBAL__N_125gSystemDefaultCenturyInitE)
  %.not.i = icmp eq i8 %5, 0
  br i1 %.not.i, label %_ZN6icu_7713umtx_initOnceERNS_9UInitOnceEPFvvE.exit, label %6

6:                                                ; preds = %4
  tail call fastcc void @_ZN6icu_7712_GLOBAL__N_130initializeSystemDefaultCenturyEv()
  tail call void @_ZN6icu_7721umtx_initImplPostInitERNS_9UInitOnceE(ptr noundef nonnull align 4 dereferenceable(8) @_ZN6icu_7712_GLOBAL__N_125gSystemDefaultCenturyInitE)
  br label %_ZN6icu_7713umtx_initOnceERNS_9UInitOnceEPFvvE.exit

_ZN6icu_7713umtx_initOnceERNS_9UInitOnceEPFvvE.exit: ; preds = %1, %4, %6
  %7 = load i32, ptr @_ZN6icu_7712_GLOBAL__N_130gSystemDefaultCenturyStartYearE, align 4, !tbaa !6
  ret i32 %7
}